; Function Attrs: mustprogress uwtable
define void @_Z21done_and_delete_atomsP7t_atoms(ptr noundef %0) local_unnamed_addr #1 {
  %2 = getelementptr inbounds nuw i8, ptr %0, i64 8
  %3 = load ptr, ptr %2, align 8, !tbaa !52
  tail call void @_Z9save_freePKcS0_iPv(ptr noundef nonnull @.str.5, ptr noundef nonnull @.str.6, i32 noundef 238, ptr noundef %3)
  %4 = getelementptr inbounds nuw i8, ptr %0, i64 48
  %5 = load ptr, ptr %4, align 8, !tbaa !53
  tail call void @_Z9save_freePKcS0_iPv(ptr noundef nonnull @.str.7, ptr noundef nonnull @.str.6, i32 noundef 239, ptr noundef %5)
  %6 = getelementptr inbounds nuw i8, ptr %0, i64 16
  %7 = load ptr, ptr %6, align 8, !tbaa !54
  tail call void @_Z9save_freePKcS0_iPv(ptr noundef nonnull @.str.8, ptr noundef nonnull @.str.6, i32 noundef 240, ptr noundef %7)
  %8 = getelementptr inbounds nuw i8, ptr %0, i64 24
  %9 = load ptr, ptr %8, align 8, !tbaa !55
  tail call void @_Z9save_freePKcS0_iPv(ptr noundef nonnull @.str.9, ptr noundef nonnull @.str.6, i32 noundef 241, ptr noundef %9)
  %10 = getelementptr inbounds nuw i8, ptr %0, i64 32
  %11 = load ptr, ptr %10, align 8, !tbaa !56
  tail call void @_Z9save_freePKcS0_iPv(ptr noundef nonnull @.str.10, ptr noundef nonnull @.str.6, i32 noundef 242, ptr noundef %11)
  %12 = getelementptr inbounds nuw i8, ptr %0, i64 56
  %13 = load ptr, ptr %12, align 8, !tbaa !57
  tail call void @_Z9save_freePKcS0_iPv(ptr noundef nonnull @.str.11, ptr noundef nonnull @.str.6, i32 noundef 243, ptr noundef %13)
  tail call void @_ZdlPvm(ptr noundef %0, i64 noundef 72) #16
  ret void
}